(lp0
S'0;8;42\r\n'
p1
aS'0;10;37\r\n'
p2
aS'0;12;37\r\n'
p3
aS'0;0;47\r\n'
p4
aS'0;2;39\r\n'
p5
aS'0;4;46\r\n'
p6
aS'0;6;37\r\n'
p7
aS'0;8;42\r\n'
p8
aS'0;10;37\r\n'
p9
aS'0;12;39\r\n'
p10
aS'0;14;36\r\n'
p11
aS'0;16;34\r\n'
p12
aS'0;18;29\r\n'
p13
aS'0;20;25\r\n'
p14
aS'0;22;30\r\n'
p15
aS'0;24;28\r\n'
p16
aS'0;26;21\r\n'
p17
aS'0;28;41\r\n'
p18
aS'0;30;59\r\n'
p19
aS'0;32;79\r\n'
p20
aS'0;34;17\r\n'
p21
aS'0;36;16\r\n'
p22
aS'0;38;1\r\n'
p23
aS'0;40;3\r\n'
p24
aS'0;42;2\r\n'
p25
aS'0;44;2\r\n'
p26
aS'0;46;3\r\n'
p27
aS'0;48;2\r\n'
p28
aS'0;50;3\r\n'
p29
aS'0;52;2\r\n'
p30
aS'0;54;2\r\n'
p31
aS'0;56;2\r\n'
p32
aS'0;58;2\r\n'
p33
aS'0;60;3\r\n'
p34
aS'0;62;2\r\n'
p35
aS'0;64;3\r\n'
p36
aS'0;66;2\r\n'
p37
aS'0;68;2\r\n'
p38
aS'0;70;42\r\n'
p39
aS'0;72;103\r\n'
p40
aS'0;74;226\r\n'
p41
aS'0;76;262\r\n'
p42
aS'0;78;317\r\n'
p43
aS'0;80;340\r\n'
p44
aS'2;0;45\r\n'
p45
aS'2;2;45\r\n'
p46
aS'2;4;42\r\n'
p47
aS'2;6;46\r\n'
p48
aS'2;8;37\r\n'
p49
aS'2;10;38\r\n'
p50
aS'2;12;34\r\n'
p51
aS'2;14;38\r\n'
p52
aS'2;16;10\r\n'
p53
aS'2;18;0\r\n'
p54
aS'2;20;28\r\n'
p55
aS'2;22;40\r\n'
p56
aS'2;24;45\r\n'
p57
aS'2;26;25\r\n'
p58
aS'2;28;64\r\n'
p59
aS'2;30;218\r\n'
p60
aS'2;32;278\r\n'
p61
aS'2;34;321\r\n'
p62
aS'2;36;108\r\n'
p63
aS'2;38;17\r\n'
p64
aS'2;40;0\r\n'
p65
aS'2;42;7\r\n'
p66
aS'2;44;4\r\n'
p67
aS'2;46;2\r\n'
p68
aS'2;48;2\r\n'
p69
aS'2;50;2\r\n'
p70
aS'2;52;2\r\n'
p71
aS'2;54;2\r\n'
p72
aS'2;56;2\r\n'
p73
aS'2;58;3\r\n'
p74
aS'2;60;7\r\n'
p75
aS'2;62;5\r\n'
p76
aS'2;64;2\r\n'
p77
aS'2;66;3\r\n'
p78
aS'2;68;2\r\n'
p79
aS'2;70;54\r\n'
p80
aS'2;72;371\r\n'
p81
aS'2;74;274\r\n'
p82
aS'2;76;328\r\n'
p83
aS'2;78;340\r\n'
p84
aS'2;80;352\r\n'
p85
aS'4;0;37\r\n'
p86
aS'4;2;37\r\n'
p87
aS'4;4;37\r\n'
p88
aS'4;6;58\r\n'
p89
aS'4;8;36\r\n'
p90
aS'4;10;40\r\n'
p91
aS'4;12;37\r\n'
p92
aS'4;14;33\r\n'
p93
aS'4;16;47\r\n'
p94
aS'4;18;29\r\n'
p95
aS'4;20;45\r\n'
p96
aS'4;22;35\r\n'
p97
aS'4;24;30\r\n'
p98
aS'4;26;20\r\n'
p99
aS'4;28;58\r\n'
p100
aS'4;30;219\r\n'
p101
aS'4;32;262\r\n'
p102
aS'4;34;282\r\n'
p103
aS'4;36;341\r\n'
p104
aS'4;38;234\r\n'
p105
aS'4;40;54\r\n'
p106
aS'4;42;2\r\n'
p107
aS'4;44;2\r\n'
p108
aS'4;46;7\r\n'
p109
aS'4;48;3\r\n'
p110
aS'4;50;3\r\n'
p111
aS'4;52;2\r\n'
p112
aS'4;54;3\r\n'
p113
aS'4;56;2\r\n'
p114
aS'4;58;23\r\n'
p115
aS'4;60;3\r\n'
p116
aS'4;62;5\r\n'
p117
aS'4;64;21\r\n'
p118
aS'4;66;219\r\n'
p119
aS'4;68;419\r\n'
p120
aS'4;70;477\r\n'
p121
aS'4;72;393\r\n'
p122
aS'4;74;332\r\n'
p123
aS'4;76;329\r\n'
p124
aS'4;78;351\r\n'
p125
aS'4;80;362\r\n'
p126
aS'6;0;42\r\n'
p127
aS'6;2;46\r\n'
p128
aS'6;4;45\r\n'
p129
aS'6;6;77\r\n'
p130
aS'6;8;38\r\n'
p131
aS'6;10;43\r\n'
p132
aS'6;12;36\r\n'
p133
aS'6;14;42\r\n'
p134
aS'6;16;47\r\n'
p135
aS'6;18;34\r\n'
p136
aS'6;20;32\r\n'
p137
aS'6;22;54\r\n'
p138
aS'6;24;13\r\n'
p139
aS'6;26;47\r\n'
p140
aS'6;28;38\r\n'
p141
aS'6;30;189\r\n'
p142
aS'6;32;251\r\n'
p143
aS'6;34;279\r\n'
p144
aS'6;36;293\r\n'
p145
aS'6;38;335\r\n'
p146
aS'6;40;355\r\n'
p147
aS'6;42;112\r\n'
p148
aS'6;44;4\r\n'
p149
aS'6;46;2\r\n'
p150
aS'6;48;2\r\n'
p151
aS'6;50;3\r\n'
p152
aS'6;52;7\r\n'
p153
aS'6;54;2\r\n'
p154
aS'6;56;3\r\n'
p155
aS'6;58;2\r\n'
p156
aS'6;60;0\r\n'
p157
aS'6;62;295\r\n'
p158
aS'6;64;476\r\n'
p159
aS'6;66;436\r\n'
p160
aS'6;68;371\r\n'
p161
aS'6;70;324\r\n'
p162
aS'6;72;317\r\n'
p163
aS'6;74;313\r\n'
p164
aS'6;76;306\r\n'
p165
aS'6;78;351\r\n'
p166
aS'6;80;374\r\n'
p167
aS'8;0;38\r\n'
p168
aS'8;2;42\r\n'
p169
aS'8;4;35\r\n'
p170
aS'8;6;45\r\n'
p171
aS'8;8;37\r\n'
p172
aS'8;10;41\r\n'
p173
aS'8;12;34\r\n'
p174
aS'8;14;36\r\n'
p175
aS'8;16;42\r\n'
p176
aS'8;18;33\r\n'
p177
aS'8;20;63\r\n'
p178
aS'8;22;37\r\n'
p179
aS'8;24;13\r\n'
p180
aS'8;26;38\r\n'
p181
aS'8;28;30\r\n'
p182
aS'8;30;26\r\n'
p183
aS'8;32;190\r\n'
p184
aS'8;34;240\r\n'
p185
aS'8;36;274\r\n'
p186
aS'8;38;282\r\n'
p187
aS'8;40;325\r\n'
p188
aS'8;42;418\r\n'
p189
aS'8;44;173\r\n'
p190
aS'8;46;2\r\n'
p191
aS'8;48;2\r\n'
p192
aS'8;50;5\r\n'
p193
aS'8;52;2\r\n'
p194
aS'8;54;2\r\n'
p195
aS'8;56;71\r\n'
p196
aS'8;58;340\r\n'
p197
aS'8;60;483\r\n'
p198
aS'8;62;395\r\n'
p199
aS'8;64;361\r\n'
p200
aS'8;66;318\r\n'
p201
aS'8;68;313\r\n'
p202
aS'8;70;307\r\n'
p203
aS'8;72;309\r\n'
p204
aS'8;74;300\r\n'
p205
aS'8;76;288\r\n'
p206
aS'8;78;351\r\n'
p207
aS'8;80;387\r\n'
p208
aS'10;0;42\r\n'
p209
aS'10;2;49\r\n'
p210
aS'10;4;29\r\n'
p211
aS'10;6;63\r\n'
p212
aS'10;8;33\r\n'
p213
aS'10;10;38\r\n'
p214
aS'10;12;37\r\n'
p215
aS'10;14;38\r\n'
p216
aS'10;16;43\r\n'
p217
aS'10;18;38\r\n'
p218
aS'10;20;46\r\n'
p219
aS'10;22;60\r\n'
p220
aS'10;24;54\r\n'
p221
aS'10;26;25\r\n'
p222
aS'10;28;31\r\n'
p223
aS'10;30;9\r\n'
p224
aS'10;32;13\r\n'
p225
aS'10;34;195\r\n'
p226
aS'10;36;266\r\n'
p227
aS'10;38;274\r\n'
p228
aS'10;40;297\r\n'
p229
aS'10;42;314\r\n'
p230
aS'10;44;393\r\n'
p231
aS'10;46;320\r\n'
p232
aS'10;48;25\r\n'
p233
aS'10;50;2\r\n'
p234
aS'10;52;62\r\n'
p235
aS'10;54;332\r\n'
p236
aS'10;56;484\r\n'
p237
aS'10;58;418\r\n'
p238
aS'10;60;353\r\n'
p239
aS'10;62;316\r\n'
p240
aS'10;64;335\r\n'
p241
aS'10;66;309\r\n'
p242
aS'10;68;309\r\n'
p243
aS'10;70;305\r\n'
p244
aS'10;72;285\r\n'
p245
aS'10;74;234\r\n'
p246
aS'10;76;206\r\n'
p247
aS'10;78;345\r\n'
p248
aS'10;80;394\r\n'
p249
aS'12;0;42\r\n'
p250
aS'12;2;42\r\n'
p251
aS'12;4;38\r\n'
p252
aS'12;6;51\r\n'
p253
aS'12;8;33\r\n'
p254
aS'12;10;33\r\n'
p255
aS'12;12;35\r\n'
p256
aS'12;14;33\r\n'
p257
aS'12;16;38\r\n'
p258
aS'12;18;42\r\n'
p259
aS'12;20;50\r\n'
p260
aS'12;22;35\r\n'
p261
aS'12;24;21\r\n'
p262
aS'12;26;24\r\n'
p263
aS'12;28;17\r\n'
p264
aS'12;30;25\r\n'
p265
aS'12;32;17\r\n'
p266
aS'12;34;5\r\n'
p267
aS'12;36;203\r\n'
p268
aS'12;38;250\r\n'
p269
aS'12;40;275\r\n'
p270
aS'12;42;281\r\n'
p271
aS'12;44;302\r\n'
p272
aS'12;46;343\r\n'
p273
aS'12;48;409\r\n'
p274
aS'12;50;375\r\n'
p275
aS'12;52;450\r\n'
p276
aS'12;54;383\r\n'
p277
aS'12;56;349\r\n'
p278
aS'12;58;309\r\n'
p279
aS'12;60;308\r\n'
p280
aS'12;62;305\r\n'
p281
aS'12;64;305\r\n'
p282
aS'12;66;290\r\n'
p283
aS'12;68;279\r\n'
p284
aS'12;70;214\r\n'
p285
aS'12;72;141\r\n'
p286
aS'12;74;119\r\n'
p287
aS'12;76;235\r\n'
p288
aS'12;78;359\r\n'
p289
aS'12;80;404\r\n'
p290
aS'14;0;32\r\n'
p291
aS'14;2;46\r\n'
p292
aS'14;4;42\r\n'
p293
aS'14;6;13\r\n'
p294
aS'14;8;36\r\n'
p295
aS'14;10;33\r\n'
p296
aS'14;12;38\r\n'
p297
aS'14;14;33\r\n'
p298
aS'14;16;42\r\n'
p299
aS'14;18;39\r\n'
p300
aS'14;20;37\r\n'
p301
aS'14;22;32\r\n'
p302
aS'14;24;25\r\n'
p303
aS'14;26;21\r\n'
p304
aS'14;28;31\r\n'
p305
aS'14;30;26\r\n'
p306
aS'14;32;16\r\n'
p307
aS'14;34;6\r\n'
p308
aS'14;36;6\r\n'
p309
aS'14;38;169\r\n'
p310
aS'14;40;250\r\n'
p311
aS'14;42;278\r\n'
p312
aS'14;44;286\r\n'
p313
aS'14;46;297\r\n'
p314
aS'14;48;341\r\n'
p315
aS'14;50;413\r\n'
p316
aS'14;52;344\r\n'
p317
aS'14;54;325\r\n'
p318
aS'14;56;305\r\n'
p319
aS'14;58;305\r\n'
p320
aS'14;60;302\r\n'
p321
aS'14;62;982\r\n'
p322
aS'14;64;1003\r\n'
p323
aS'14;66;1003\r\n'
p324
aS'14;68;995\r\n'
p325
aS'14;70;1011\r\n'
p326
aS'14;72;991\r\n'
p327
aS'14;74;993\r\n'
p328
aS'14;76;996\r\n'
p329
aS'14;78;992\r\n'
p330
aS'14;80;993\r\n'
p331
aS'16;0;42\r\n'
p332
aS'16;2;63\r\n'
p333
aS'16;4;46\r\n'
p334
aS'16;6;45\r\n'
p335
aS'16;8;50\r\n'
p336
aS'16;10;42\r\n'
p337
aS'16;12;33\r\n'
p338
aS'16;14;32\r\n'
p339
aS'16;16;37\r\n'
p340
aS'16;18;34\r\n'
p341
aS'16;20;32\r\n'
p342
aS'16;22;34\r\n'
p343
aS'16;24;33\r\n'
p344
aS'16;26;30\r\n'
p345
aS'16;28;54\r\n'
p346
aS'16;30;30\r\n'
p347
aS'16;32;9\r\n'
p348
aS'16;34;13\r\n'
p349
aS'16;36;984\r\n'
p350
aS'16;38;986\r\n'
p351
aS'16;40;990\r\n'
p352
aS'16;42;988\r\n'
p353
aS'16;44;989\r\n'
p354
aS'16;46;987\r\n'
p355
aS'16;48;991\r\n'
p356
aS'16;50;986\r\n'
p357
aS'16;52;987\r\n'
p358
aS'16;54;990\r\n'
p359
aS'16;56;988\r\n'
p360
aS'16;58;1009\r\n'
p361
aS'16;60;990\r\n'
p362
aS'16;62;988\r\n'
p363
aS'16;64;990\r\n'
p364
aS'16;66;990\r\n'
p365
aS'16;68;997\r\n'
p366
aS'16;70;142\r\n'
p367
aS'16;72;170\r\n'
p368
aS'16;74;159\r\n'
p369
aS'16;76;235\r\n'
p370
aS'16;78;368\r\n'
p371
aS'16;80;392\r\n'
p372
a.